; Function Attrs: mustprogress nofree norecurse nosync nounwind memory(write, argmem: readwrite, inaccessiblemem: none) uwtable
define dso_local noundef range(i32 0, 3) i32 @_ZNKSt3__120__codecvt_utf8_utf16IwE5do_inER11__mbstate_tPKcS5_RS5_PwS7_RS7_(ptr noundef nonnull readonly align 8 captures(none) dereferenceable(36) %0, ptr nonnull readnone align 4 captures(none) %1, ptr noundef %2, ptr noundef %3, ptr noundef nonnull writeonly align 8 captures(none) dereferenceable(8) initializes((0, 8)) %4, ptr noundef %5, ptr noundef %6, ptr noundef nonnull writeonly align 8 captures(none) dereferenceable(8) initializes((0, 8)) %7) unnamed_addr #27 align 2 {
  %9 = alloca ptr, align 8
  %10 = alloca ptr, align 8
  call void @llvm.lifetime.start.p0(i64 8, ptr nonnull %9) #45
  call void @llvm.lifetime.start.p0(i64 8, ptr nonnull %10) #45
  %11 = getelementptr inbounds nuw i8, ptr %0, i64 24
  %12 = load i64, ptr %11, align 8, !tbaa !475
  %13 = getelementptr inbounds nuw i8, ptr %0, i64 32
  %14 = load i32, ptr %13, align 8, !tbaa !477
  %15 = call fastcc noundef i32 @_ZNSt3__1L13utf8_to_utf16EPKhS1_RS1_PjS3_RS3_mNS_12codecvt_modeE(ptr noundef %2, ptr noundef %3, ptr noundef nonnull align 8 dereferenceable(8) %9, ptr noundef %5, ptr noundef %6, ptr noundef nonnull align 8 dereferenceable(8) %10, i64 noundef %12, i32 noundef %14)
  %16 = load ptr, ptr %9, align 8, !tbaa !72
  %17 = ptrtoint ptr %16 to i64
  %18 = ptrtoint ptr %2 to i64
  %19 = sub i64 %17, %18
  %20 = getelementptr inbounds i8, ptr %2, i64 %19
  store ptr %20, ptr %4, align 8, !tbaa !72
  %21 = load ptr, ptr %10, align 8, !tbaa !73
  %22 = ptrtoint ptr %21 to i64
  %23 = ptrtoint ptr %5 to i64
  %24 = sub i64 %22, %23
  %25 = getelementptr inbounds i8, ptr %5, i64 %24
  store ptr %25, ptr %7, align 8, !tbaa !128
  call void @llvm.lifetime.end.p0(i64 8, ptr nonnull %10) #45
  call void @llvm.lifetime.end.p0(i64 8, ptr nonnull %9) #45
  ret i32 %15
}